target datalayout = "e-m:e-p270:32:32-p271:32:32-p272:64:64-i64:64-i128:128-f80:128-n8:16:32:64-S128"
target triple = "x86_64-unknown-linux-gnu"

%class.expr2polynomial = type { ptr, ptr }
%"struct.expr2polynomial::imp" = type <{ ptr, ptr, %class.arith_util, ptr, ptr, i8, [7 x i8], %class.ref_vector, %class.obj_map, %class.ref_vector, %class.ref_vector.0, %class._scoped_numeral_vector, %class.svector.6, %class.ref_vector.0, %class._scoped_numeral_vector, i8, %"struct.std::atomic", [6 x i8] }>
%class.arith_util = type { ptr, ptr }
%class.obj_map = type { %class.core_hashtable }
%class.core_hashtable = type <{ ptr, i32, i32, i32, [4 x i8] }>
%class.ref_vector = type { %class.ref_vector_core }
%class.ref_vector_core = type { %class.ref_manager_wrapper, %class.ptr_vector }
%class.ref_manager_wrapper = type { ptr }
%class.ptr_vector = type { %class.vector }
%class.vector = type { ptr }
%class.svector.6 = type { %class.vector.7 }
%class.vector.7 = type { ptr }
%class.ref_vector.0 = type { %class.ref_vector_core.1 }
%class.ref_vector_core.1 = type { %class.ref_manager_wrapper.2, %class.ptr_vector.3 }
%class.ref_manager_wrapper.2 = type { ptr }
%class.ptr_vector.3 = type { %class.vector.4 }
%class.vector.4 = type { ptr }
%class._scoped_numeral_vector = type { %class.svector, ptr }
%class.svector = type { %class.vector.5 }
%class.vector.5 = type { ptr }
%"struct.std::atomic" = type { %"struct.std::__atomic_base" }
%"struct.std::__atomic_base" = type { i8 }
%class.default_expr2polynomial = type { %class.expr2polynomial, %class.svector.47 }
%class.svector.47 = type { %class.vector.48 }
%class.vector.48 = type { ptr }

; Function Attrs: mustprogress nounwind uwtable
define linkonce_odr hidden noundef i32 @_ZNK6vectorIbLb0EjE8capacityEv(ptr noundef nonnull align 8 dereferenceable(8) %this) #5 comdat align 2 {
entry:
  %retval = alloca i32, align 4
  %this.addr = alloca ptr, align 8
  store ptr %this, ptr %this.addr, align 8
  %this1 = load ptr, ptr %this.addr, align 8
  %m_data = getelementptr inbounds %class.vector.48, ptr %this1, i32 0, i32 0
  %0 = load ptr, ptr %m_data, align 8
  %cmp = icmp eq ptr %0, null
  br i1 %cmp, label %if.then, label %if.end

if.then:                                          ; preds = %entry
  store i32 0, ptr %retval, align 4
  br label %return

if.end:                                           ; preds = %entry
  %m_data2 = getelementptr inbounds %class.vector.48, ptr %this1, i32 0, i32 0
  %1 = load ptr, ptr %m_data2, align 8
  %arrayidx = getelementptr inbounds i32, ptr %1, i64 -2
  %2 = load i32, ptr %arrayidx, align 4
  store i32 %2, ptr %retval, align 4
  br label %return

return:                                           ; preds = %if.end, %if.then
  %3 = load i32, ptr %retval, align 4
  ret i32 %3
}

; Function Attrs: mustprogress nounwind uwtable
define linkonce_odr hidden void @_ZN6vectorIbLb0EjE6shrinkEj(ptr noundef nonnull align 8 dereferenceable(8) %this, i32 noundef %s) #5 comdat align 2 {
entry:
  %this.addr = alloca ptr, align 8
  %s.addr = alloca i32, align 4
  store ptr %this, ptr %this.addr, align 8
  store i32 %s, ptr %s.addr, align 4
  %this1 = load ptr, ptr %this.addr, align 8
  %m_data = getelementptr inbounds %class.vector.48, ptr %this1, i32 0, i32 0
  %0 = load ptr, ptr %m_data, align 8
  %tobool = icmp ne ptr %0, null
  br i1 %tobool, label %if.then, label %if.else

if.then:                                          ; preds = %entry
  %1 = load i32, ptr %s.addr, align 4
  %m_data2 = getelementptr inbounds %class.vector.48, ptr %this1, i32 0, i32 0
  %2 = load ptr, ptr %m_data2, align 8
  %arrayidx = getelementptr inbounds i32, ptr %2, i64 -1
  store i32 %1, ptr %arrayidx, align 4
  br label %if.end

if.else:                                          ; preds = %entry
  br label %if.end

if.end:                                           ; preds = %if.else, %if.then
  ret void
}

; Function Attrs: mustprogress uwtable
define linkonce_odr hidden void @_ZN6vectorIbLb0EjE6resizeIbEEvjT_z(ptr noundef nonnull align 8 dereferenceable(8) %this, i32 noundef %s, i1 noundef zeroext %args, ...) #4 comdat align 2 {
entry:
  %this.addr = alloca ptr, align 8
  %s.addr = alloca i32, align 4
  %args.addr = alloca i8, align 1
  %sz = alloca i32, align 4
  %it = alloca ptr, align 8
  %end = alloca ptr, align 8
  store ptr %this, ptr %this.addr, align 8
  store i32 %s, ptr %s.addr, align 4
  %frombool = zext i1 %args to i8
  store i8 %frombool, ptr %args.addr, align 1
  %this1 = load ptr, ptr %this.addr, align 8
  %call = call noundef i32 @_ZNK6vectorIbLb0EjE4sizeEv(ptr noundef nonnull align 8 dereferenceable(8) %this1)
  store i32 %call, ptr %sz, align 4
  %0 = load i32, ptr %s.addr, align 4
  %1 = load i32, ptr %sz, align 4
  %cmp = icmp ule i32 %0, %1
  br i1 %cmp, label %if.then, label %if.end

if.then:                                          ; preds = %entry
  %2 = load i32, ptr %s.addr, align 4
  call void @_ZN6vectorIbLb0EjE6shrinkEj(ptr noundef nonnull align 8 dereferenceable(8) %this1, i32 noundef %2)
  br label %for.end

if.end:                                           ; preds = %entry
  br label %while.cond

while.cond:                                       ; preds = %while.body, %if.end
  %3 = load i32, ptr %s.addr, align 4
  %call2 = call noundef i32 @_ZNK6vectorIbLb0EjE8capacityEv(ptr noundef nonnull align 8 dereferenceable(8) %this1)
  %cmp3 = icmp ugt i32 %3, %call2
  br i1 %cmp3, label %while.body, label %while.end

while.body:                                       ; preds = %while.cond
  call void @_ZN6vectorIbLb0EjE13expand_vectorEv(ptr noundef nonnull align 8 dereferenceable(8) %this1)
  br label %while.cond, !llvm.loop !35

while.end:                                        ; preds = %while.cond
  %4 = load i32, ptr %s.addr, align 4
  %m_data = getelementptr inbounds %class.vector.48, ptr %this1, i32 0, i32 0
  %5 = load ptr, ptr %m_data, align 8
  %arrayidx = getelementptr inbounds i32, ptr %5, i64 -1
  store i32 %4, ptr %arrayidx, align 4
  %m_data4 = getelementptr inbounds %class.vector.48, ptr %this1, i32 0, i32 0
  %6 = load ptr, ptr %m_data4, align 8
  %7 = load i32, ptr %sz, align 4
  %idx.ext = zext i32 %7 to i64
  %add.ptr = getelementptr inbounds i8, ptr %6, i64 %idx.ext
  store ptr %add.ptr, ptr %it, align 8
  %m_data5 = getelementptr inbounds %class.vector.48, ptr %this1, i32 0, i32 0
  %8 = load ptr, ptr %m_data5, align 8
  %9 = load i32, ptr %s.addr, align 4
  %idx.ext6 = zext i32 %9 to i64
  %add.ptr7 = getelementptr inbounds i8, ptr %8, i64 %idx.ext6
  store ptr %add.ptr7, ptr %end, align 8
  br label %for.cond

for.cond:                                         ; preds = %for.inc, %while.end
  %10 = load ptr, ptr %it, align 8
  %11 = load ptr, ptr %end, align 8
  %cmp8 = icmp ne ptr %10, %11
  br i1 %cmp8, label %for.body, label %for.end

for.body:                                         ; preds = %for.cond
  %12 = load ptr, ptr %it, align 8
  %13 = load i8, ptr %args.addr, align 1
  %tobool = trunc i8 %13 to i1
  %frombool9 = zext i1 %tobool to i8
  store i8 %frombool9, ptr %12, align 1
  br label %for.inc

for.inc:                                          ; preds = %for.body
  %14 = load ptr, ptr %it, align 8
  %incdec.ptr = getelementptr inbounds i8, ptr %14, i32 1
  store ptr %incdec.ptr, ptr %it, align 8
  br label %for.cond, !llvm.loop !36

for.end:                                          ; preds = %for.cond, %if.then
  ret void
}

; Function Attrs: mustprogress nounwind uwtable
define linkonce_odr hidden noundef i32 @_ZNK6vectorIbLb0EjE4sizeEv(ptr noundef nonnull align 8 dereferenceable(8) %this) #5 comdat align 2 {
entry:
  %retval = alloca i32, align 4
  %this.addr = alloca ptr, align 8
  store ptr %this, ptr %this.addr, align 8
  %this1 = load ptr, ptr %this.addr, align 8
  %m_data = getelementptr inbounds %class.vector.48, ptr %this1, i32 0, i32 0
  %0 = load ptr, ptr %m_data, align 8
  %cmp = icmp eq ptr %0, null
  br i1 %cmp, label %if.then, label %if.end

if.then:                                          ; preds = %entry
  store i32 0, ptr %retval, align 4
  br label %return

if.end:                                           ; preds = %entry
  %m_data2 = getelementptr inbounds %class.vector.48, ptr %this1, i32 0, i32 0
  %1 = load ptr, ptr %m_data2, align 8
  %arrayidx = getelementptr inbounds i32, ptr %1, i64 -1
  %2 = load i32, ptr %arrayidx, align 4
  store i32 %2, ptr %retval, align 4
  br label %return

return:                                           ; preds = %if.end, %if.then
  %3 = load i32, ptr %retval, align 4
  ret i32 %3
}

; Function Attrs: mustprogress nounwind uwtable
define linkonce_odr hidden noundef nonnull align 1 dereferenceable(1) ptr @_ZN6vectorIbLb0EjEixEj(ptr noundef nonnull align 8 dereferenceable(8) %this, i32 noundef %idx) #5 comdat align 2 {
entry:
  %this.addr = alloca ptr, align 8
  %idx.addr = alloca i32, align 4
  store ptr %this, ptr %this.addr, align 8
  store i32 %idx, ptr %idx.addr, align 4
  %this1 = load ptr, ptr %this.addr, align 8
  %m_data = getelementptr inbounds %class.vector.48, ptr %this1, i32 0, i32 0
  %0 = load ptr, ptr %m_data, align 8
  %1 = load i32, ptr %idx.addr, align 4
  %idxprom = zext i32 %1 to i64
  %arrayidx = getelementptr inbounds i8, ptr %0, i64 %idxprom
  ret ptr %arrayidx
}

; Function Attrs: mustprogress uwtable
define linkonce_odr hidden void @_ZN6vectorIbLb0EjE7reserveEjRKb(ptr noundef nonnull align 8 dereferenceable(8) %this, i32 noundef %s, ptr noundef nonnull align 1 dereferenceable(1) %d) #4 comdat align 2 {
entry:
  %this.addr = alloca ptr, align 8
  %s.addr = alloca i32, align 4
  %d.addr = alloca ptr, align 8
  store ptr %this, ptr %this.addr, align 8
  store i32 %s, ptr %s.addr, align 4
  store ptr %d, ptr %d.addr, align 8
  %this1 = load ptr, ptr %this.addr, align 8
  %0 = load i32, ptr %s.addr, align 4
  %call = call noundef i32 @_ZNK6vectorIbLb0EjE4sizeEv(ptr noundef nonnull align 8 dereferenceable(8) %this1)
  %cmp = icmp ugt i32 %0, %call
  br i1 %cmp, label %if.then, label %if.end

if.then:                                          ; preds = %entry
  %1 = load i32, ptr %s.addr, align 4
  %2 = load ptr, ptr %d.addr, align 8
  %3 = load i8, ptr %2, align 1
  %tobool = trunc i8 %3 to i1
  call void (ptr, i32, i1, ...) @_ZN6vectorIbLb0EjE6resizeIbEEvjT_z(ptr noundef nonnull align 8 dereferenceable(8) %this1, i32 noundef %1, i1 noundef zeroext %tobool)
  br label %if.end

if.end:                                           ; preds = %if.then, %entry
  ret void
}

; Function Attrs: mustprogress nounwind uwtable
define hidden noundef nonnull align 8 dereferenceable(8) ptr @_ZNK15expr2polynomial2pmEv(ptr noundef nonnull align 8 dereferenceable(16) %this) #5 align 2 {
entry:
  %this.addr = alloca ptr, align 8
  store ptr %this, ptr %this.addr, align 8
  %this1 = load ptr, ptr %this.addr, align 8
  %m_imp = getelementptr inbounds %class.expr2polynomial, ptr %this1, i32 0, i32 1
  %0 = load ptr, ptr %m_imp, align 8
  %m_pm = getelementptr inbounds %"struct.expr2polynomial::imp", ptr %0, i32 0, i32 3
  %1 = load ptr, ptr %m_pm, align 8
  ret ptr %1
}

; Function Attrs: mustprogress uwtable
define hidden noundef i32 @_ZN23default_expr2polynomial6mk_varEb(ptr noundef nonnull align 8 dereferenceable(24) %this, i1 noundef zeroext %is_int) unnamed_addr #4 align 2 {
entry:
  %this.addr = alloca ptr, align 8
  %is_int.addr = alloca i8, align 1
  %x = alloca i32, align 4
  %ref.tmp = alloca i8, align 1
  store ptr %this, ptr %this.addr, align 8
  %frombool = zext i1 %is_int to i8
  store i8 %frombool, ptr %is_int.addr, align 1
  %this1 = load ptr, ptr %this.addr, align 8
  %call = call noundef nonnull align 8 dereferenceable(8) ptr @_ZNK15expr2polynomial2pmEv(ptr noundef nonnull align 8 dereferenceable(16) %this1)
  %call2 = call noundef i32 @_ZN10polynomial7manager6mk_varEv(ptr noundef nonnull align 8 dereferenceable(8) %call)
  store i32 %call2, ptr %x, align 4
  %m_is_int = getelementptr inbounds %class.default_expr2polynomial, ptr %this1, i32 0, i32 1
  %0 = load i32, ptr %x, align 4
  %add = add i32 %0, 1
  store i8 0, ptr %ref.tmp, align 1
  call void @_ZN6vectorIbLb0EjE7reserveEjRKb(ptr noundef nonnull align 8 dereferenceable(8) %m_is_int, i32 noundef %add, ptr noundef nonnull align 1 dereferenceable(1) %ref.tmp)
  %1 = load i8, ptr %is_int.addr, align 1
  %tobool = trunc i8 %1 to i1
  %m_is_int3 = getelementptr inbounds %class.default_expr2polynomial, ptr %this1, i32 0, i32 1
  %2 = load i32, ptr %x, align 4
  %call4 = call noundef nonnull align 1 dereferenceable(1) ptr @_ZN6vectorIbLb0EjEixEj(ptr noundef nonnull align 8 dereferenceable(8) %m_is_int3, i32 noundef %2)
  %frombool5 = zext i1 %tobool to i8
  store i8 %frombool5, ptr %call4, align 1
  %3 = load i32, ptr %x, align 4
  ret i32 %3
}