; Function Attrs: mustprogress uwtable
define hidden noundef i32 @_ZN23default_expr2polynomial6mk_varEb(ptr noundef nonnull align 8 dereferenceable(24) %this, i1 noundef zeroext %is_int) unnamed_addr #3 align 2 {
entry:
  %m_imp.i = getelementptr inbounds i8, ptr %this, i64 8
  %0 = load ptr, ptr %m_imp.i, align 8
  %m_pm.i = getelementptr inbounds i8, ptr %0, i64 32
  %1 = load ptr, ptr %m_pm.i, align 8
  %call2 = tail call noundef i32 @_ZN10polynomial7manager6mk_varEv(ptr noundef nonnull align 8 dereferenceable(8) %1)
  %m_is_int = getelementptr inbounds i8, ptr %this, i64 16
  %add = add i32 %call2, 1
  %2 = load ptr, ptr %m_is_int, align 8
  %cmp.i.i = icmp eq ptr %2, null
  br i1 %cmp.i.i, label %_ZNK6vectorIbLb0EjE4sizeEv.exit.i, label %_ZNK6vectorIbLb0EjE4sizeEv.exit.thread.i

_ZNK6vectorIbLb0EjE4sizeEv.exit.i:                ; preds = %entry
  %cmp.not.i = icmp ne i32 %add, 0
  tail call void @llvm.assume(i1 %cmp.not.i)
  br label %while.cond.i.i.preheader

_ZNK6vectorIbLb0EjE4sizeEv.exit.thread.i:         ; preds = %entry
  %arrayidx.i.i = getelementptr inbounds i8, ptr %2, i64 -4
  %3 = load i32, ptr %arrayidx.i.i, align 4
  %cmp4.i = icmp ult i32 %3, %add
  br i1 %cmp4.i, label %while.cond.i.i.preheader, label %_ZN6vectorIbLb0EjE7reserveEjRKb.exit

while.cond.i.i.preheader:                         ; preds = %_ZNK6vectorIbLb0EjE4sizeEv.exit.i, %_ZNK6vectorIbLb0EjE4sizeEv.exit.thread.i
  %.ph = phi ptr [ %2, %_ZNK6vectorIbLb0EjE4sizeEv.exit.thread.i ], [ null, %_ZNK6vectorIbLb0EjE4sizeEv.exit.i ]
  %retval.0.i16.i.i.ph = phi i32 [ %3, %_ZNK6vectorIbLb0EjE4sizeEv.exit.thread.i ], [ 0, %_ZNK6vectorIbLb0EjE4sizeEv.exit.i ]
  br label %while.cond.i.i

while.cond.i.i:                                   ; preds = %while.cond.i.i.preheader, %while.body.i.i
  %4 = phi ptr [ %.pr.pre.i.i, %while.body.i.i ], [ %.ph, %while.cond.i.i.preheader ]
  %cmp.i10.i.i = icmp eq ptr %4, null
  br i1 %cmp.i10.i.i, label %_ZNK6vectorIbLb0EjE8capacityEv.exit.i.i, label %if.end.i11.i.i

if.end.i11.i.i:                                   ; preds = %while.cond.i.i
  %arrayidx.i12.i.i = getelementptr inbounds i8, ptr %4, i64 -8
  %5 = load i32, ptr %arrayidx.i12.i.i, align 4
  br label %_ZNK6vectorIbLb0EjE8capacityEv.exit.i.i

_ZNK6vectorIbLb0EjE8capacityEv.exit.i.i:          ; preds = %if.end.i11.i.i, %while.cond.i.i
  %retval.0.i13.i.i = phi i32 [ %5, %if.end.i11.i.i ], [ 0, %while.cond.i.i ]
  %cmp3.i.i = icmp ult i32 %retval.0.i13.i.i, %add
  br i1 %cmp3.i.i, label %while.body.i.i, label %while.end.i.i

while.body.i.i:                                   ; preds = %_ZNK6vectorIbLb0EjE8capacityEv.exit.i.i
  tail call void @_ZN6vectorIbLb0EjE13expand_vectorEv(ptr noundef nonnull align 8 dereferenceable(8) %m_is_int)
  %.pr.pre.i.i = load ptr, ptr %m_is_int, align 8
  br label %while.cond.i.i, !llvm.loop !16

while.end.i.i:                                    ; preds = %_ZNK6vectorIbLb0EjE8capacityEv.exit.i.i
  %arrayidx.i2.i = getelementptr inbounds i8, ptr %4, i64 -4
  store i32 %add, ptr %arrayidx.i2.i, align 4
  %cmp8.not17.i.i = icmp eq i32 %retval.0.i16.i.i.ph, %add
  %.pre4 = load ptr, ptr %m_is_int, align 8
  br i1 %cmp8.not17.i.i, label %_ZN6vectorIbLb0EjE7reserveEjRKb.exit, label %for.body.preheader.i.i

for.body.preheader.i.i:                           ; preds = %while.end.i.i
  %idx.ext6.i.i = zext i32 %add to i64
  %idx.ext.i.i = zext i32 %retval.0.i16.i.i.ph to i64
  %add.ptr.i.i = getelementptr i8, ptr %.pre4, i64 %idx.ext.i.i
  %6 = sub nsw i64 %idx.ext6.i.i, %idx.ext.i.i
  tail call void @llvm.memset.p0.i64(ptr align 1 %add.ptr.i.i, i8 0, i64 %6, i1 false)
  %.pre = load ptr, ptr %m_is_int, align 8
  br label %_ZN6vectorIbLb0EjE7reserveEjRKb.exit

_ZN6vectorIbLb0EjE7reserveEjRKb.exit:             ; preds = %_ZNK6vectorIbLb0EjE4sizeEv.exit.thread.i, %while.end.i.i, %for.body.preheader.i.i
  %7 = phi ptr [ %2, %_ZNK6vectorIbLb0EjE4sizeEv.exit.thread.i ], [ %.pre4, %while.end.i.i ], [ %.pre, %for.body.preheader.i.i ]
  %frombool = zext i1 %is_int to i8
  %idxprom.i = zext i32 %call2 to i64
  %arrayidx.i = getelementptr inbounds i8, ptr %7, i64 %idxprom.i
  store i8 %frombool, ptr %arrayidx.i, align 1
  ret i32 %call2
}